target datalayout = "e-m:e-p270:32:32-p271:32:32-p272:64:64-i64:64-i128:128-f80:128-n8:16:32:64-S128"
target triple = "x86_64-unknown-linux-gnu"

%"class.std::__cxx11::basic_string" = type { %"struct.std::__cxx11::basic_string<char>::_Alloc_hider", i64, %union.anon }
%"struct.std::__cxx11::basic_string<char>::_Alloc_hider" = type { ptr }
%union.anon = type { i64, [8 x i8] }
%struct.statfs = type { i64, i64, i64, i64, i64, i64, i64, %struct.__fsid_t, i64, i64, i64, [4 x i64] }
%struct.__fsid_t = type { [2 x i32] }
%"class.rocksdb::PosixDirectory" = type { %"class.rocksdb::FSDirectory", i32, i8, %"class.std::__cxx11::basic_string" }
%"class.rocksdb::FSDirectory" = type { ptr }

; Function Attrs: mustprogress nounwind uwtable
define linkonce_odr void @_ZN7rocksdb11FSDirectoryD2Ev(ptr noundef nonnull align 8 dereferenceable(8) %this) unnamed_addr #3 comdat align 2 {
entry:
  %this.addr = alloca ptr, align 8
  store ptr %this, ptr %this.addr, align 8
  ret void
}

; Function Attrs: mustprogress nounwind uwtable
define linkonce_odr void @_ZN7rocksdb11FSDirectoryC2Ev(ptr noundef nonnull align 8 dereferenceable(8) %this) unnamed_addr #3 comdat align 2 {
entry:
  %this.addr = alloca ptr, align 8
  store ptr %this, ptr %this.addr, align 8
  %this1 = load ptr, ptr %this.addr, align 8
  store ptr getelementptr inbounds ({ [8 x ptr] }, ptr @_ZTVN7rocksdb11FSDirectoryE, i32 0, i32 0, i32 2), ptr %this1, align 8
  ret void
}

; Function Attrs: mustprogress uwtable
define void @_ZN7rocksdb14PosixDirectoryC2EiRKNSt7__cxx1112basic_stringIcSt11char_traitsIcESaIcEEE(ptr noundef nonnull align 8 dereferenceable(48) %this, i32 noundef %fd, ptr noundef nonnull align 8 dereferenceable(32) %directory_name) unnamed_addr #0 align 2 personality ptr @__gxx_personality_v0 {
entry:
  %this.addr = alloca ptr, align 8
  %fd.addr = alloca i32, align 4
  %directory_name.addr = alloca ptr, align 8
  %exn.slot = alloca ptr, align 8
  %ehselector.slot = alloca i32, align 4
  %buf = alloca %struct.statfs, align 8
  %ret = alloca i32, align 4
  store ptr %this, ptr %this.addr, align 8
  store i32 %fd, ptr %fd.addr, align 4
  store ptr %directory_name, ptr %directory_name.addr, align 8
  %this1 = load ptr, ptr %this.addr, align 8
  call void @_ZN7rocksdb11FSDirectoryC2Ev(ptr noundef nonnull align 8 dereferenceable(8) %this1) #15
  store ptr getelementptr inbounds ({ [8 x ptr] }, ptr @_ZTVN7rocksdb14PosixDirectoryE, i32 0, i32 0, i32 2), ptr %this1, align 8
  %fd_ = getelementptr inbounds %"class.rocksdb::PosixDirectory", ptr %this1, i32 0, i32 1
  %0 = load i32, ptr %fd.addr, align 4
  store i32 %0, ptr %fd_, align 8
  %directory_name_ = getelementptr inbounds %"class.rocksdb::PosixDirectory", ptr %this1, i32 0, i32 3
  %1 = load ptr, ptr %directory_name.addr, align 8
  invoke void @_ZNSt7__cxx1112basic_stringIcSt11char_traitsIcESaIcEEC1ERKS4_(ptr noundef nonnull align 8 dereferenceable(32) %directory_name_, ptr noundef nonnull align 8 dereferenceable(32) %1)
          to label %invoke.cont unwind label %lpad

invoke.cont:                                      ; preds = %entry
  %is_btrfs_ = getelementptr inbounds %"class.rocksdb::PosixDirectory", ptr %this1, i32 0, i32 2
  store i8 0, ptr %is_btrfs_, align 4
  %2 = load i32, ptr %fd.addr, align 4
  %call = call i32 @fstatfs(i32 noundef %2, ptr noundef %buf) #15
  store i32 %call, ptr %ret, align 4
  %3 = load i32, ptr %ret, align 4
  %cmp = icmp eq i32 %3, 0
  br i1 %cmp, label %land.rhs, label %land.end

land.rhs:                                         ; preds = %invoke.cont
  %f_type = getelementptr inbounds %struct.statfs, ptr %buf, i32 0, i32 0
  %4 = load i64, ptr %f_type, align 8
  %cmp2 = icmp eq i64 %4, 2435016766
  br label %land.end

land.end:                                         ; preds = %land.rhs, %invoke.cont
  %5 = phi i1 [ false, %invoke.cont ], [ %cmp2, %land.rhs ]
  %is_btrfs_3 = getelementptr inbounds %"class.rocksdb::PosixDirectory", ptr %this1, i32 0, i32 2
  %frombool = zext i1 %5 to i8
  store i8 %frombool, ptr %is_btrfs_3, align 4
  ret void

lpad:                                             ; preds = %entry
  %6 = landingpad { ptr, i32 }
          cleanup
  %7 = extractvalue { ptr, i32 } %6, 0
  store ptr %7, ptr %exn.slot, align 8
  %8 = extractvalue { ptr, i32 } %6, 1
  store i32 %8, ptr %ehselector.slot, align 4
  call void @_ZN7rocksdb11FSDirectoryD2Ev(ptr noundef nonnull align 8 dereferenceable(8) %this1) #15
  br label %eh.resume

eh.resume:                                        ; preds = %lpad
  %exn = load ptr, ptr %exn.slot, align 8
  %sel = load i32, ptr %ehselector.slot, align 4
  %lpad.val = insertvalue { ptr, i32 } poison, ptr %exn, 0
  %lpad.val4 = insertvalue { ptr, i32 } %lpad.val, i32 %sel, 1
  resume { ptr, i32 } %lpad.val4
}