; Function Attrs: mustprogress uwtable
define void @_ZN7rocksdb14PosixDirectoryC2EiRKNSt7__cxx1112basic_stringIcSt11char_traitsIcESaIcEEE(ptr noundef nonnull align 8 dereferenceable(48) %this, i32 noundef %fd, ptr noundef nonnull align 8 dereferenceable(32) %directory_name) unnamed_addr #0 align 2 personality ptr @__gxx_personality_v0 {
entry:
  %buf = alloca %struct.statfs, align 8
  store ptr getelementptr inbounds ({ [8 x ptr] }, ptr @_ZTVN7rocksdb14PosixDirectoryE, i64 0, i32 0, i64 2), ptr %this, align 8
  %fd_ = getelementptr inbounds i8, ptr %this, i64 8
  store i32 %fd, ptr %fd_, align 8
  %directory_name_ = getelementptr inbounds i8, ptr %this, i64 16
  tail call void @_ZNSt7__cxx1112basic_stringIcSt11char_traitsIcESaIcEEC1ERKS4_(ptr noundef nonnull align 8 dereferenceable(32) %directory_name_, ptr noundef nonnull align 8 dereferenceable(32) %directory_name)
  %is_btrfs_ = getelementptr inbounds i8, ptr %this, i64 12
  store i8 0, ptr %is_btrfs_, align 4
  %call = call i32 @fstatfs(i32 noundef %fd, ptr noundef nonnull %buf) #25
  %cmp = icmp eq i32 %call, 0
  %0 = load i64, ptr %buf, align 8
  %cmp2 = icmp eq i64 %0, 2435016766
  %1 = select i1 %cmp, i1 %cmp2, i1 false
  %frombool = zext i1 %1 to i8
  store i8 %frombool, ptr %is_btrfs_, align 4
  ret void
}